Certificate:
    Data:
        Version: 3 (0x2)
        Serial Number: 2 (0x2)
        Signature Algorithm: sha256WithRSAEncryption
        Issuer: C=US, ST=AZ, L=Arizona, O=Network Neighborhood, CN=CA for x.com to twitter.com redirect by Network Neighborhood/emailAddress=kawapure+nninquires@gmail.com
        Validity
            Not Before: Jun 16 23:13:17 2024 GMT
            Not After : Jun 14 23:13:17 2034 GMT
        Subject: C=US, ST=AZ, L=Arizona, O=Network Neighborhood, CN=x.com to twitter.com redirect by Network Neighborhood
        Subject Public Key Info:
            Public Key Algorithm: rsaEncryption
                RSA Public-Key: (2048 bit)
                Modulus:
                    00:c6:47:20:92:47:2e:20:13:ca:e2:62:c1:4c:43:
                    cd:75:69:4e:b1:b2:27:01:d8:9c:68:ed:d4:fb:63:
                    f1:0e:61:e9:2f:a0:42:80:a1:cf:4a:09:e0:8b:7a:
                    3d:9c:ed:d7:f3:87:a9:96:a7:87:f5:90:af:6d:d2:
                    e1:c5:d5:43:b7:7a:09:c1:30:65:99:18:e5:fc:a8:
                    2b:bf:d9:1e:e7:d7:fb:d5:e4:16:f6:ee:46:82:3e:
                    93:5d:43:f5:35:12:ef:7d:4f:2b:85:19:69:77:1e:
                    a2:58:1b:1e:a5:3a:27:37:42:ae:8d:54:b1:a6:55:
                    c8:e9:05:53:bd:5c:ea:55:2f:0a:75:e7:6f:da:50:
                    14:c7:61:4e:22:d8:77:17:de:8d:cb:a5:10:92:41:
                    93:ce:68:09:e6:e0:f9:80:9c:7a:7a:8b:27:20:33:
                    7a:3f:17:06:f2:21:06:84:38:e5:3a:cd:83:c8:43:
                    64:59:aa:9e:03:f1:16:19:af:56:b4:95:9f:7a:e7:
                    8e:ff:f0:d9:ab:24:60:15:84:11:4c:a1:db:68:ea:
                    bc:4b:05:41:fb:02:7c:de:ae:63:52:af:90:d0:d3:
                    58:d0:4b:d4:41:7e:88:64:25:d0:61:88:3d:af:38:
                    f9:6b:7c:b5:a8:8f:fb:d7:6e:30:97:6d:1f:f6:dc:
                    81:73
                Exponent: 65537 (0x10001)
        X509v3 extensions:
            X509v3 Key Usage: 
                Digital Signature, Key Encipherment
            X509v3 Subject Key Identifier: 
                4F:07:4C:93:2F:4E:11:7F:4A:5D:82:D4:11:21:B9:BE:E8:7F:C0:4C
            X509v3 Authority Key Identifier: 
                keyid:DC:35:B9:07:7C:9A:DD:3F:9C:10:BF:41:75:39:13:EB:19:51:7F:2F

            X509v3 Basic Constraints: 
                CA:FALSE
            X509v3 Subject Alternative Name: 
                DNS:twitter.com, DNS:api.twitter.com, DNS:*.twitter.com, IP Address:127.0.0.8, IP Address:127.0.0.1, IP Address:0:0:0:0:0:0:0:1
            Netscape Comment: 
                OpenSSL Generated Certificate
    Signature Algorithm: sha256WithRSAEncryption
         68:78:06:21:85:08:07:c2:40:5a:de:83:e7:bb:88:81:96:59:
         6a:7f:66:4f:b8:14:59:6e:56:38:10:00:d2:4a:e2:40:c2:c3:
         fc:9c:14:fb:45:0b:05:d5:0c:0b:cd:32:e1:59:11:dc:25:9c:
         04:f4:91:cd:79:20:67:ce:b2:2a:46:e9:95:87:30:29:e7:8e:
         cc:5f:56:85:b4:5d:e5:9a:15:44:c4:73:51:a8:96:0d:14:9e:
         c8:3f:08:35:f1:d0:54:b1:bd:a7:52:13:31:20:74:5b:59:6d:
         89:a7:b2:5d:13:69:85:a9:9a:7b:40:b1:d2:81:20:81:25:36:
         b8:f8:82:b1:06:c3:95:2f:02:09:b7:ea:d9:37:95:e7:f3:d0:
         d4:72:dc:81:fe:4b:52:6f:c2:27:21:d2:e8:a1:16:3b:30:79:
         5f:f4:da:42:6d:d0:c6:fc:d3:9c:4f:c5:45:fa:99:3b:50:8f:
         42:11:4b:29:b8:0d:2c:03:11:bf:78:59:ab:a0:00:33:e6:3d:
         bb:f6:43:22:a6:ef:3d:42:a5:49:02:9b:bd:1d:3b:1a:0b:b6:
         6b:e9:81:1e:67:06:91:51:17:3f:a2:61:ab:53:a5:ca:5c:93:
         c4:bd:a3:97:fe:ce:02:7c:a1:e5:05:d3:74:17:3c:79:41:4d:
         11:d2:a7:5b:a8:e1:0d:69:22:89:b9:ac:5f:f6:07:a3:39:0c:
         b9:99:d9:85:27:10:13:f1:06:d7:c3:5f:77:5a:89:92:fa:74:
         0c:6f:c7:47:2c:c3:d4:48:72:73:10:f7:8e:c7:5e:fc:e4:a1:
         55:3b:87:be:37:4d:b7:b7:1e:f8:9a:06:9d:a4:9b:61:75:75:
         87:6f:9b:00:73:fb:30:67:a6:c7:b9:4c:99:87:55:82:c2:a7:
         a6:7f:d2:e2:04:46:cd:b9:92:62:0b:63:87:5f:51:de:ed:c8:
         e7:93:de:39:74:42:3a:a1:c3:b2:ed:7a:58:29:d8:b9:5e:42:
         a7:94:c7:f0:a5:f1:ed:79:e3:a9:d6:b8:e7:b3:12:11:00:2e:
         ba:c2:18:24:ea:cc:01:7f:69:b2:87:29:26:53:ee:a6:5c:e2:
         0c:27:0a:40:a9:ef:50:69:d5:70:59:bd:5d:bc:3b:de:43:24:
         b6:c6:01:13:20:45:2e:18:80:df:c6:91:97:44:60:cf:4d:f8:
         65:1d:55:a9:22:97:c0:63:bc:c7:af:48:f6:26:fd:c0:56:ff:
         46:d3:12:5c:f9:c3:fa:92:aa:17:8d:15:7f:d7:bb:c4:dd:ef:
         4b:02:56:e5:88:a2:6f:40:86:84:70:dd:24:f7:ba:6e:03:4c:
         e1:d7:38:87:d4:90:05:03
-----BEGIN CERTIFICATE-----
MIIFqDCCA5CgAwIBAgIBAjANBgkqhkiG9w0BAQsFADCBwDELMAkGA1UEBhMCVVMx
CzAJBgNVBAgMAkFaMRAwDgYDVQQHDAdBcml6b25hMR0wGwYDVQQKDBROZXR3b3Jr
IE5laWdoYm9yaG9vZDFFMEMGA1UEAww8Q0EgZm9yIHguY29tIHRvIHR3aXR0ZXIu
Y29tIHJlZGlyZWN0IGJ5IE5ldHdvcmsgTmVpZ2hib3Job29kMSwwKgYJKoZIhvcN
AQkBFh1rYXdhcHVyZStubmlucXVpcmVzQGdtYWlsLmNvbTAeFw0yNDA2MTYyMzEz
MTdaFw0zNDA2MTQyMzEzMTdaMIGLMQswCQYDVQQGEwJVUzELMAkGA1UECAwCQVox
EDAOBgNVBAcMB0FyaXpvbmExHTAbBgNVBAoMFE5ldHdvcmsgTmVpZ2hib3Job29k
MT4wPAYDVQQDDDV4LmNvbSB0byB0d2l0dGVyLmNvbSByZWRpcmVjdCBieSBOZXR3
b3JrIE5laWdoYm9yaG9vZDCCASIwDQYJKoZIhvcNAQEBBQADggEPADCCAQoCggEB
AMZHIJJHLiATyuJiwUxDzXVpTrGyJwHYnGjt1Ptj8Q5h6S+gQoChz0oJ4It6PZzt
1/OHqZanh/WQr23S4cXVQ7d6CcEwZZkY5fyoK7/ZHufX+9XkFvbuRoI+k11D9TUS
731PK4UZaXceolgbHqU6JzdCro1UsaZVyOkFU71c6lUvCnXnb9pQFMdhTiLYdxfe
jculEJJBk85oCebg+YCcenqLJyAzej8XBvIhBoQ45TrNg8hDZFmqngPxFhmvVrSV
n3rnjv/w2askYBWEEUyh22jqvEsFQfsCfN6uY1KvkNDTWNBL1EF+iGQl0GGIPa84
+Wt8taiP+9duMJdtH/bcgXMCAwEAAaOB3zCB3DALBgNVHQ8EBAMCBaAwHQYDVR0O
BBYEFE8HTJMvThF/Sl2C1BEhub7of8BMMB8GA1UdIwQYMBaAFNw1uQd8mt0/nBC/
QXU5E+sZUX8vMAkGA1UdEwQCMAAwVAYDVR0RBE0wS4ILdHdpdHRlci5jb22CD2Fw
aS50d2l0dGVyLmNvbYINKi50d2l0dGVyLmNvbYcEfwAACIcEfwAAAYcQAAAAAAAA
AAAAAAAAAAAAATAsBglghkgBhvhCAQ0EHxYdT3BlblNTTCBHZW5lcmF0ZWQgQ2Vy
dGlmaWNhdGUwDQYJKoZIhvcNAQELBQADggIBAGh4BiGFCAfCQFreg+e7iIGWWWp/
Zk+4FFluVjgQANJK4kDCw/ycFPtFCwXVDAvNMuFZEdwlnAT0kc15IGfOsipG6ZWH
MCnnjsxfVoW0XeWaFUTEc1Golg0Unsg/CDXx0FSxvadSEzEgdFtZbYmnsl0TaYWp
mntAsdKBIIElNrj4grEGw5UvAgm36tk3lefz0NRy3IH+S1Jvwich0uihFjsweV/0
2kJt0Mb805xPxUX6mTtQj0IRSym4DSwDEb94WaugADPmPbv2QyKm7z1CpUkCm70d
OxoLtmvpgR5nBpFRFz+iYatTpcpck8S9o5f+zgJ8oeUF03QXPHlBTRHSp1uo4Q1p
Iom5rF/2B6M5DLmZ2YUnEBPxBtfDX3daiZL6dAxvx0csw9RIcnMQ947HXvzkoVU7
h743Tbe3HviaBp2km2F1dYdvmwBz+zBnpse5TJmHVYLCp6Z/0uIERs25kmILY4df
Ud7tyOeT3jl0Qjqhw7Ltelgp2LleQqeUx/Cl8e1546nWuOezEhEALrrCGCTqzAF/
abKHKSZT7qZc4gwnCkCp71Bp1XBZvV28O95DJLbGARMgRS4YgN/GkZdEYM9N+GUd
Vakil8BjvMevSPYm/cBW/0bTElz5w/qSqheNFX/Xu8Td70sCVuWIom9AhoRw3ST3
um4DTOHXOIfUkAUD
-----END CERTIFICATE-----
