Certificate:
    Data:
        Version: 3 (0x2)
        Serial Number: 1 (0x1)
        Signature Algorithm: sha256WithRSAEncryption
        Issuer: C=US, ST=AZ, L=Arizona, O=Network Neighborhood, CN=CA for x.com to twitter.com redirect by Network Neighborhood/emailAddress=kawapure+nninquires@gmail.com
        Validity
            Not Before: May 17 20:30:47 2024 GMT
            Not After : May 15 20:30:47 2034 GMT
        Subject: C=US, ST=AZ, L=Arizona, O=Network Neighborhood, CN=x.com to twitter.com redirect by Network Neighborhood
        Subject Public Key Info:
            Public Key Algorithm: rsaEncryption
                RSA Public-Key: (2048 bit)
                Modulus:
                    00:f0:bd:a2:3c:e3:e5:0f:e4:34:af:e6:54:86:f5:
                    0b:25:18:7c:e5:b1:54:7b:68:6d:bd:82:87:a3:42:
                    5e:72:d1:8a:5c:db:f7:f7:c7:17:41:e8:70:d3:94:
                    ea:69:fe:fb:3b:2a:45:ff:95:2e:93:eb:43:27:28:
                    26:ab:e0:fd:98:74:73:f6:33:38:2b:ff:88:9c:3c:
                    fe:ea:7a:f1:e1:bb:85:ec:54:3b:1e:53:63:25:1d:
                    ef:aa:8a:a5:1e:20:f2:0b:5f:7e:64:d1:c2:75:6b:
                    f2:37:2e:51:6d:be:fa:ac:4c:c8:f0:17:8e:d8:4a:
                    ed:99:9e:be:d5:11:9b:0b:65:26:e5:f5:75:a9:09:
                    60:64:95:10:a7:68:db:dc:01:fb:fd:13:20:14:4b:
                    94:0c:3b:b8:2d:4b:7b:17:b7:a4:6b:ab:51:7c:de:
                    91:5b:9b:5d:91:b3:1d:2e:3a:14:c2:02:ba:47:bb:
                    bb:e4:fe:4a:31:45:c6:59:c1:10:99:e1:98:ba:e9:
                    ba:fe:10:73:90:cc:cf:f7:be:53:5c:76:94:ba:b9:
                    5b:4c:c2:30:36:31:5c:a8:65:ac:0c:a7:cf:0f:39:
                    78:6c:d5:14:6f:8e:e4:86:f3:0e:17:37:88:bd:c4:
                    f3:b3:83:b0:a0:de:f0:d3:52:f4:f0:8a:9c:cd:2b:
                    88:cb
                Exponent: 65537 (0x10001)
        X509v3 extensions:
            X509v3 Key Usage: 
                Digital Signature, Key Encipherment
            X509v3 Subject Key Identifier: 
                78:71:5B:55:35:D4:62:AC:7D:C2:8B:E8:46:3D:E7:1E:24:F9:75:71
            X509v3 Authority Key Identifier: 
                keyid:04:0D:5D:E9:79:43:DB:1A:58:69:1B:13:ED:9B:C2:71:58:43:FA:93

            X509v3 Basic Constraints: 
                CA:FALSE
            X509v3 Subject Alternative Name: 
                DNS:twitter.com, DNS:api.twitter.com, DNS:*.twitter.com, IP Address:127.0.0.8, IP Address:127.0.0.1, IP Address:0:0:0:0:0:0:0:1
            Netscape Comment: 
                OpenSSL Generated Certificate
    Signature Algorithm: sha256WithRSAEncryption
         1d:83:11:83:04:e1:9a:a4:1a:f9:20:ad:25:49:b3:79:1e:2e:
         75:34:80:19:e0:02:3b:37:41:08:4b:1c:9a:0a:12:eb:d8:5a:
         1a:b0:e3:03:6a:d9:8e:70:22:3d:9c:4b:81:47:ba:4d:04:e1:
         c5:cc:95:76:dd:86:f1:9e:5b:76:69:ec:7e:45:7e:ef:f6:f9:
         7d:98:b0:9b:83:7f:38:79:4c:e7:28:ae:b7:9e:2a:cc:f3:f4:
         e7:07:a9:8e:fc:fd:9e:23:3b:d3:1a:89:67:21:de:eb:35:9f:
         ed:70:97:ce:5e:aa:27:3e:8f:23:ad:e2:36:0e:dd:20:d0:33:
         33:05:bb:3c:0e:8c:03:f8:33:a4:ae:7b:cd:46:e4:68:08:a9:
         ba:75:3f:28:9c:86:df:c8:99:3b:56:4f:1d:31:c0:a5:1c:a6:
         50:2b:54:03:53:44:1b:31:bc:b4:bd:44:d1:7b:44:6e:87:ca:
         49:1e:0f:10:85:7a:9e:a7:d1:43:df:42:b3:d5:1b:dc:b8:ea:
         66:62:12:c5:7f:a5:b4:b2:fd:22:dd:78:ed:fc:57:c7:3e:a8:
         b4:49:d4:30:ea:8a:c9:2d:18:84:e4:72:0d:d3:09:23:6e:e4:
         8c:bf:c5:17:f9:49:1a:ae:9e:70:59:e8:b7:11:04:6a:a4:f1:
         b8:5b:e5:a9:b3:21:7b:31:5d:54:36:29:4b:f8:3e:4b:9b:df:
         1f:4e:cf:f8:a0:70:c2:bb:3c:d7:48:63:9c:a4:44:c6:65:02:
         13:63:da:46:7f:3c:14:b5:94:45:b1:19:02:78:f4:53:c8:ea:
         9c:44:bd:b3:69:5c:9e:48:c3:2b:c7:a4:d0:34:c7:57:57:c9:
         3d:33:5c:33:7f:85:37:f3:5c:d3:c8:ac:d9:72:d1:66:e3:16:
         f2:e8:16:43:4d:d7:38:6c:16:94:70:be:27:5e:92:33:e1:86:
         77:fb:53:93:0f:60:26:0e:57:eb:5b:75:32:46:3f:97:8e:a1:
         f4:48:50:9d:4f:03:ea:75:a4:6e:7b:9a:36:16:8e:f9:54:2f:
         d9:d9:82:f6:25:1f:c3:e7:aa:6d:e9:ad:97:2a:50:8a:5d:fc:
         92:ba:01:13:ba:d1:bc:d5:c6:52:44:7e:1d:28:b9:33:e4:36:
         3f:f3:05:fa:3c:78:91:7a:43:33:d7:e9:96:29:d3:45:17:f9:
         07:14:a8:8a:3d:84:4b:d5:5b:73:f5:60:b9:a1:aa:94:8d:13:
         1b:c5:18:ca:ea:4e:51:4b:f3:79:4e:71:e5:31:ad:0c:84:96:
         81:3b:9a:60:c5:0b:00:21:6c:36:22:bc:26:7a:53:cc:ed:a7:
         e8:b6:03:88:06:49:39:dc
-----BEGIN CERTIFICATE-----
MIIFqDCCA5CgAwIBAgIBATANBgkqhkiG9w0BAQsFADCBwDELMAkGA1UEBhMCVVMx
CzAJBgNVBAgMAkFaMRAwDgYDVQQHDAdBcml6b25hMR0wGwYDVQQKDBROZXR3b3Jr
IE5laWdoYm9yaG9vZDFFMEMGA1UEAww8Q0EgZm9yIHguY29tIHRvIHR3aXR0ZXIu
Y29tIHJlZGlyZWN0IGJ5IE5ldHdvcmsgTmVpZ2hib3Job29kMSwwKgYJKoZIhvcN
AQkBFh1rYXdhcHVyZStubmlucXVpcmVzQGdtYWlsLmNvbTAeFw0yNDA1MTcyMDMw
NDdaFw0zNDA1MTUyMDMwNDdaMIGLMQswCQYDVQQGEwJVUzELMAkGA1UECAwCQVox
EDAOBgNVBAcMB0FyaXpvbmExHTAbBgNVBAoMFE5ldHdvcmsgTmVpZ2hib3Job29k
MT4wPAYDVQQDDDV4LmNvbSB0byB0d2l0dGVyLmNvbSByZWRpcmVjdCBieSBOZXR3
b3JrIE5laWdoYm9yaG9vZDCCASIwDQYJKoZIhvcNAQEBBQADggEPADCCAQoCggEB
APC9ojzj5Q/kNK/mVIb1CyUYfOWxVHtobb2Ch6NCXnLRilzb9/fHF0HocNOU6mn+
+zsqRf+VLpPrQycoJqvg/Zh0c/YzOCv/iJw8/up68eG7hexUOx5TYyUd76qKpR4g
8gtffmTRwnVr8jcuUW2++qxMyPAXjthK7ZmevtURmwtlJuX1dakJYGSVEKdo29wB
+/0TIBRLlAw7uC1Lexe3pGurUXzekVubXZGzHS46FMICuke7u+T+SjFFxlnBEJnh
mLrpuv4Qc5DMz/e+U1x2lLq5W0zCMDYxXKhlrAynzw85eGzVFG+O5IbzDhc3iL3E
87ODsKDe8NNS9PCKnM0riMsCAwEAAaOB3zCB3DALBgNVHQ8EBAMCBaAwHQYDVR0O
BBYEFHhxW1U11GKsfcKL6EY95x4k+XVxMB8GA1UdIwQYMBaAFAQNXel5Q9saWGkb
E+2bwnFYQ/qTMAkGA1UdEwQCMAAwVAYDVR0RBE0wS4ILdHdpdHRlci5jb22CD2Fw
aS50d2l0dGVyLmNvbYINKi50d2l0dGVyLmNvbYcEfwAACIcEfwAAAYcQAAAAAAAA
AAAAAAAAAAAAATAsBglghkgBhvhCAQ0EHxYdT3BlblNTTCBHZW5lcmF0ZWQgQ2Vy
dGlmaWNhdGUwDQYJKoZIhvcNAQELBQADggIBAB2DEYME4ZqkGvkgrSVJs3keLnU0
gBngAjs3QQhLHJoKEuvYWhqw4wNq2Y5wIj2cS4FHuk0E4cXMlXbdhvGeW3Zp7H5F
fu/2+X2YsJuDfzh5TOcorreeKszz9OcHqY78/Z4jO9MaiWch3us1n+1wl85eqic+
jyOt4jYO3SDQMzMFuzwOjAP4M6Sue81G5GgIqbp1Pyicht/ImTtWTx0xwKUcplAr
VANTRBsxvLS9RNF7RG6HykkeDxCFep6n0UPfQrPVG9y46mZiEsV/pbSy/SLdeO38
V8c+qLRJ1DDqisktGITkcg3TCSNu5Iy/xRf5SRqunnBZ6LcRBGqk8bhb5amzIXsx
XVQ2KUv4Pkub3x9Oz/igcMK7PNdIY5ykRMZlAhNj2kZ/PBS1lEWxGQJ49FPI6pxE
vbNpXJ5IwyvHpNA0x1dXyT0zXDN/hTfzXNPIrNly0WbjFvLoFkNN1zhsFpRwvide
kjPhhnf7U5MPYCYOV+tbdTJGP5eOofRIUJ1PA+p1pG57mjYWjvlUL9nZgvYlH8Pn
qm3prZcqUIpd/JK6ARO60bzVxlJEfh0ouTPkNj/zBfo8eJF6QzPX6ZYp00UX+QcU
qIo9hEvVW3P1YLmhqpSNExvFGMrqTlFL83lOceUxrQyEloE7mmDFCwAhbDYivCZ6
U8ztp+i2A4gGSTnc
-----END CERTIFICATE-----
